target datalayout = "e-m:e-p270:32:32-p271:32:32-p272:64:64-i64:64-i128:128-f80:128-n8:16:32:64-S128"
target triple = "x86_64-pc-linux-gnu"

; Function Attrs: nounwind uwtable
define internal void @sum2_double(ptr noundef %0, ptr noundef %1, ptr noundef %2, ptr noundef %3, i32 noundef %4, i32 noundef %5, i32 noundef %6) #0 {
  %8 = alloca ptr, align 8
  %9 = alloca ptr, align 8
  %10 = alloca ptr, align 8
  %11 = alloca ptr, align 8
  %12 = alloca i32, align 4
  %13 = alloca i32, align 4
  %14 = alloca i32, align 4
  %15 = alloca i32, align 4
  %16 = alloca double, align 8
  %17 = alloca double, align 8
  store ptr %0, ptr %8, align 8, !tbaa !9
  store ptr %1, ptr %9, align 8, !tbaa !9
  store ptr %2, ptr %10, align 8, !tbaa !9
  store ptr %3, ptr %11, align 8, !tbaa !9
  store i32 %4, ptr %12, align 4, !tbaa !11
  store i32 %5, ptr %13, align 4, !tbaa !11
  store i32 %6, ptr %14, align 4, !tbaa !11
  call void @llvm.lifetime.start.p0(i64 4, ptr %15) #9
  call void @llvm.lifetime.start.p0(i64 8, ptr %16) #9
  %18 = load ptr, ptr %11, align 8, !tbaa !9
  %19 = load i32, ptr %12, align 4, !tbaa !11
  %20 = sext i32 %19 to i64
  %21 = getelementptr inbounds double, ptr %18, i64 %20
  %22 = load double, ptr %21, align 8, !tbaa !29
  store double %22, ptr %16, align 8, !tbaa !29
  call void @llvm.lifetime.start.p0(i64 8, ptr %17) #9
  %23 = load ptr, ptr %11, align 8, !tbaa !9
  %24 = load i32, ptr %13, align 4, !tbaa !11
  %25 = sext i32 %24 to i64
  %26 = getelementptr inbounds double, ptr %23, i64 %25
  %27 = load double, ptr %26, align 8, !tbaa !29
  store double %27, ptr %17, align 8, !tbaa !29
  store i32 0, ptr %15, align 4, !tbaa !11
  br label %28

28:                                               ; preds = %51, %7
  %29 = load i32, ptr %15, align 4, !tbaa !11
  %30 = load i32, ptr %14, align 4, !tbaa !11
  %31 = icmp slt i32 %29, %30
  br i1 %31, label %32, label %54

32:                                               ; preds = %28
  %33 = load double, ptr %16, align 8, !tbaa !29
  %34 = load ptr, ptr %9, align 8, !tbaa !9
  %35 = load i32, ptr %15, align 4, !tbaa !11
  %36 = sext i32 %35 to i64
  %37 = getelementptr inbounds double, ptr %34, i64 %36
  %38 = load double, ptr %37, align 8, !tbaa !29
  %39 = load double, ptr %17, align 8, !tbaa !29
  %40 = load ptr, ptr %10, align 8, !tbaa !9
  %41 = load i32, ptr %15, align 4, !tbaa !11
  %42 = sext i32 %41 to i64
  %43 = getelementptr inbounds double, ptr %40, i64 %42
  %44 = load double, ptr %43, align 8, !tbaa !29
  %45 = fmul nsz double %39, %44
  %46 = call nsz double @llvm.fmuladd.f64(double %33, double %38, double %45)
  %47 = load ptr, ptr %8, align 8, !tbaa !9
  %48 = load i32, ptr %15, align 4, !tbaa !11
  %49 = sext i32 %48 to i64
  %50 = getelementptr inbounds double, ptr %47, i64 %49
  store double %46, ptr %50, align 8, !tbaa !29
  br label %51

51:                                               ; preds = %32
  %52 = load i32, ptr %15, align 4, !tbaa !11
  %53 = add nsw i32 %52, 1
  store i32 %53, ptr %15, align 4, !tbaa !11
  br label %28, !llvm.loop !98

54:                                               ; preds = %28
  call void @llvm.lifetime.end.p0(i64 8, ptr %17) #9
  call void @llvm.lifetime.end.p0(i64 8, ptr %16) #9
  call void @llvm.lifetime.end.p0(i64 4, ptr %15) #9
  ret void
}