; Function Attrs: nofree norecurse nosync nounwind memory(argmem: readwrite) uwtable
define internal void @sum2_double(ptr noundef writeonly captures(none) %0, ptr noundef readonly captures(none) %1, ptr noundef readonly captures(none) %2, ptr noundef readonly captures(none) %3, i32 noundef %4, i32 noundef %5, i32 noundef %6) #0 {
  %8 = sext i32 %4 to i64
  %9 = getelementptr inbounds double, ptr %3, i64 %8
  %10 = load double, ptr %9, align 8, !tbaa !24
  %11 = sext i32 %5 to i64
  %12 = getelementptr inbounds double, ptr %3, i64 %11
  %13 = load double, ptr %12, align 8, !tbaa !24
  %14 = icmp sgt i32 %6, 0
  br i1 %14, label %.lr.ph.preheader, label %._crit_edge

.lr.ph.preheader:                                 ; preds = %7
  %wide.trip.count = zext nneg i32 %6 to i64
  br label %.lr.ph

.lr.ph:                                           ; preds = %.lr.ph.preheader, %.lr.ph
  %indvars.iv = phi i64 [ 0, %.lr.ph.preheader ], [ %indvars.iv.next, %.lr.ph ]
  %15 = getelementptr inbounds nuw double, ptr %1, i64 %indvars.iv
  %16 = load double, ptr %15, align 8, !tbaa !24
  %17 = getelementptr inbounds nuw double, ptr %2, i64 %indvars.iv
  %18 = load double, ptr %17, align 8, !tbaa !24
  %19 = fmul nsz double %13, %18
  %20 = tail call nsz double @llvm.fmuladd.f64(double %10, double %16, double %19)
  %21 = getelementptr inbounds nuw double, ptr %0, i64 %indvars.iv
  store double %20, ptr %21, align 8, !tbaa !24
  %indvars.iv.next = add nuw nsw i64 %indvars.iv, 1
  %exitcond.not = icmp eq i64 %indvars.iv.next, %wide.trip.count
  br i1 %exitcond.not, label %._crit_edge, label %.lr.ph, !llvm.loop !85

._crit_edge:                                      ; preds = %.lr.ph, %7
  ret void
}